Certificate:
    Data:
        Version: 3 (0x2)
        Serial Number: 4096 (0x1000)
    Signature Algorithm: sha1WithRSAEncryption
        Issuer: C=FR, ST=Ile-de-France, L=Paris, O=Infinit.io, OU=Development, CN=Louis FEUVRIER/emailAddress=louis.feuvrier@infinit.io
        Validity
            Not Before: Dec  5 10:59:48 2013 GMT
            Not After : Dec  5 10:59:48 2014 GMT
        Subject: C=FR, ST=Ile-de-France, O=Infinit.io, OU=Development, CN=Louis FEUVRIER/emailAddress=louis.feuvrier@infinit.io
        Subject Public Key Info:
            Public Key Algorithm: rsaEncryption
                Public-Key: (1024 bit)
                Modulus:
                    00:d0:ff:a0:44:cf:e5:0e:c4:bf:22:53:d8:0e:69:
                    5a:1a:3e:1d:78:c9:52:85:80:1c:e5:ed:f5:2b:07:
                    fc:c7:2b:ca:18:75:f7:91:5a:92:79:55:f6:e9:42:
                    e0:e0:a3:df:fb:3e:b4:42:d0:4b:f5:eb:05:44:32:
                    2c:4a:85:d0:e1:a3:6c:aa:f0:01:f7:12:c4:0e:ff:
                    00:a1:74:d2:65:20:db:5a:03:78:c7:54:a1:bc:d7:
                    83:ff:97:78:bd:14:d6:51:35:ba:60:1b:ff:94:bf:
                    7e:4c:44:ab:cc:b6:93:0c:6a:5f:86:8e:28:6b:91:
                    ed:28:ba:4a:6f:4f:33:3f:45
                Exponent: 65537 (0x10001)
        X509v3 extensions:
            X509v3 Basic Constraints: 
                CA:FALSE
            Netscape Comment: 
                OpenSSL Generated Certificate
            X509v3 Subject Key Identifier: 
                D5:5D:C6:2C:AB:1F:BD:2A:5B:E8:4F:C6:68:B8:BB:32:87:D4:1D:E5
            X509v3 Authority Key Identifier: 
                keyid:37:88:75:C3:4E:4B:13:F3:02:7F:0C:BD:D0:9C:85:46:F9:BF:41:DF

    Signature Algorithm: sha1WithRSAEncryption
         2a:65:c9:31:f9:ef:b5:77:e7:76:fa:0c:49:da:33:63:a8:58:
         83:81:da:d7:72:65:f9:9c:06:e1:96:66:fc:88:a8:c4:1c:8f:
         be:66:98:3d:db:ae:62:c3:fc:72:fc:2b:d7:6c:97:0e:1c:52:
         f9:cc:fd:e5:f2:e9:b6:e1:18:10:32:6c:15:8f:6c:a4:2d:d5:
         c1:59:81:9e:74:b2:f5:d5:47:82:42:2a:16:52:82:0a:bc:2a:
         73:09:fe:8c:a6:40:0c:49:06:fb:14:fb:58:c0:4f:62:3c:e0:
         ca:b6:c8:66:8d:77:c0:6b:6a:d2:73:97:a5:33:0c:b3:d3:4b:
         09:93
-----BEGIN CERTIFICATE-----
MIIDKjCCApOgAwIBAgICEAAwDQYJKoZIhvcNAQEFBQAwgaMxCzAJBgNVBAYTAkZS
MRYwFAYDVQQIDA1JbGUtZGUtRnJhbmNlMQ4wDAYDVQQHDAVQYXJpczETMBEGA1UE
CgwKSW5maW5pdC5pbzEUMBIGA1UECwwLRGV2ZWxvcG1lbnQxFzAVBgNVBAMMDkxv
dWlzIEZFVVZSSUVSMSgwJgYJKoZIhvcNAQkBFhlsb3Vpcy5mZXV2cmllckBpbmZp
bml0LmlvMB4XDTEzMTIwNTEwNTk0OFoXDTE0MTIwNTEwNTk0OFowgZMxCzAJBgNV
BAYTAkZSMRYwFAYDVQQIDA1JbGUtZGUtRnJhbmNlMRMwEQYDVQQKDApJbmZpbml0
LmlvMRQwEgYDVQQLDAtEZXZlbG9wbWVudDEXMBUGA1UEAwwOTG91aXMgRkVVVlJJ
RVIxKDAmBgkqhkiG9w0BCQEWGWxvdWlzLmZldXZyaWVyQGluZmluaXQuaW8wgZ8w
DQYJKoZIhvcNAQEBBQADgY0AMIGJAoGBAND/oETP5Q7EvyJT2A5pWho+HXjJUoWA
HOXt9SsH/Mcryhh195FaknlV9ulC4OCj3/s+tELQS/XrBUQyLEqF0OGjbKrwAfcS
xA7/AKF00mUg21oDeMdUobzXg/+XeL0U1lE1umAb/5S/fkxEq8y2kwxqX4aOKGuR
7Si6Sm9PMz9FAgMBAAGjezB5MAkGA1UdEwQCMAAwLAYJYIZIAYb4QgENBB8WHU9w
ZW5TU0wgR2VuZXJhdGVkIENlcnRpZmljYXRlMB0GA1UdDgQWBBTVXcYsqx+9Klvo
T8ZouLsyh9Qd5TAfBgNVHSMEGDAWgBQ3iHXDTksT8wJ/DL3QnIVG+b9B3zANBgkq
hkiG9w0BAQUFAAOBgQAqZckx+e+1d+d2+gxJ2jNjqFiDgdrXcmX5nAbhlmb8iKjE
HI++Zpg9265iw/xy/CvXbJcOHFL5zP3l8um24RgQMmwVj2ykLdXBWYGedLL11UeC
QioWUoIKvCpzCf6MpkAMSQb7FPtYwE9iPODKtshmjXfAa2rSc5elMwyz00sJkw==
-----END CERTIFICATE-----
